target datalayout = "e-m:e-p270:32:32-p271:32:32-p272:64:64-i64:64-i128:128-f80:128-n8:16:32:64-S128"
target triple = "x86_64-pc-linux-gnu"

%struct.clientReplyBlock = type { i64, i64, [0 x i8] }

; Function Attrs: nounwind uwtable
define dso_local ptr @dupClientReplyValue(ptr noundef %0) #0 {
  %2 = alloca ptr, align 8
  %3 = alloca ptr, align 8
  %4 = alloca ptr, align 8
  store ptr %0, ptr %2, align 8, !tbaa !10
  call void @llvm.lifetime.start.p0(i64 8, ptr %3) #16
  %5 = load ptr, ptr %2, align 8, !tbaa !10
  store ptr %5, ptr %3, align 8, !tbaa !22
  call void @llvm.lifetime.start.p0(i64 8, ptr %4) #16
  %6 = load ptr, ptr %3, align 8, !tbaa !22
  %7 = getelementptr inbounds nuw %struct.clientReplyBlock, ptr %6, i32 0, i32 0
  %8 = load i64, ptr %7, align 8, !tbaa !20
  %9 = add i64 16, %8
  %10 = call noalias ptr @zmalloc(i64 noundef %9) #18
  store ptr %10, ptr %4, align 8, !tbaa !22
  %11 = load ptr, ptr %4, align 8, !tbaa !22
  %12 = load ptr, ptr %2, align 8, !tbaa !10
  %13 = load ptr, ptr %3, align 8, !tbaa !22
  %14 = getelementptr inbounds nuw %struct.clientReplyBlock, ptr %13, i32 0, i32 0
  %15 = load i64, ptr %14, align 8, !tbaa !20
  %16 = add i64 16, %15
  call void @llvm.memcpy.p0.p0.i64(ptr align 8 %11, ptr align 1 %12, i64 %16, i1 false)
  %17 = load ptr, ptr %4, align 8, !tbaa !22
  call void @llvm.lifetime.end.p0(i64 8, ptr %4) #16
  call void @llvm.lifetime.end.p0(i64 8, ptr %3) #16
  ret ptr %17
}