; Function Attrs: nounwind uwtable
define dso_local noalias ptr @dupClientReplyValue(ptr noundef readonly captures(none) %0) #0 {
  %2 = load i64, ptr %0, align 8, !tbaa !16
  %3 = add i64 %2, 16
  %4 = tail call noalias ptr @zmalloc(i64 noundef %3) #28
  %5 = load i64, ptr %0, align 8, !tbaa !16
  %6 = add i64 %5, 16
  tail call void @llvm.memcpy.p0.p0.i64(ptr align 8 %4, ptr nonnull align 1 %0, i64 %6, i1 false)
  ret ptr %4
}